(lp0
S'agartala'
p1
aS'agra'
p2
aS'agumbe'
p3
aS'ahmedabad'
p4
aS'aizawl'
p5
aS'ajmer'
p6
aS'alappuzha beach'
p7
aS'allahabad'
p8
aS'alleppey'
p9
aS'almora'
p10
aS'amarnath'
p11
aS'amritsar'
p12
aS'anantagir'
p13
aS'andaman and nicobar islands'
p14
aS'araku valley'
p15
aS'aurangabad'
p16
aS'ayodhya'
p17
aS'jaipur'
p18
aS'jaisalmer'
p19
aS'jabalpur'
p20
aS'jalandhar'
p21
aS'jamshedpur'
p22
aS'jammu'
p23
aS'jodhpur'
p24
aS'sanchi'
p25
aS'saputara'
p26
aS'sariska wildlife sanctuary'
p27
aS'shillong'
p28
aS'shimla'
p29
aS'sohna_hills'
p30
aS'sunderbans'
p31
aS'surat'
p32
aS'srinagar'
p33
aS'badrinath'
p34
aS'bandhavgarh national park'
p35
aS'bangalore'
p36
aS'baroda'
p37
aS'bastar'
p38
aS'bhagalpur'
p39
aS'bhilai'
p40
aS'bhimtal'
p41
aS'bhopal'
p42
aS'bhubaneswar'
p43
aS'bhuj'
p44
aS'bidar'
p45
aS'bilaspur'
p46
aS'bodh gaya'
p47
aS'kanchipuram'
p48
aS'kanha national park'
p49
aS'kanpur'
p50
aS'kanyakumari'
p51
aS'kargil'
p52
aS'karwar'
p53
aS'kausani'
p54
aS'kedarnath'
p55
aS'keoladeoghana national park'
p56
aS'khajuraho'
p57
aS'kochi'
p58
aS'kodaikanal'
p59
aS'kolkata'
p60
aS'kollam'
p61
aS'konark'
p62
aS'kotagiri'
p63
aS'kottakkal and ayurveda'
p64
aS'kovalam'
p65
aS'kovalam and ayurveda'
p66
aS'kudremukh'
p67
aS'kullu'
p68
aS'kumarakom'
p69
aS'kumarakom and ayurveda'
p70
aS'kumarakom bird sanctuary'
p71
aS'kumaon'
p72
aS'kurukshetra'
p73
aS'thanjavur'
p74
aS'tezpur'
p75
aS'thrissur'
p76
aS'tirunelveli'
p77
aS'trichy'
p78
aS'tirupati'
p79
aS'thiruvananthapuram'
p80
aS'calicut'
p81
aS'chandigarh'
p82
aS'chail'
p83
aS'chamba'
p84
aS'chennai'
p85
aS'chennai beaches'
p86
aS'cherai'
p87
aS'cherrapunji'
p88
aS'chopta'
p89
aS'chidambaram'
p90
aS'chikhaldara hills'
p91
aS'coimbatore'
p92
aS'coonoor'
p93
aS'coorg'
p94
aS'corbett national park'
p95
aS'cotigao wild life sanctuary'
p96
aS'cuttack'
p97
aS'lakshadweep\tludhiana'
p98
aS'lucknow'
p99
aS'udaipur'
p100
aS'ujjain'
p101
aS'dadra and nagar haveli'
p102
aS'daman and diu'
p103
aS'dalhousie'
p104
aS'darjeeling'
p105
aS'dehradun\tdelhi'
p106
aS'devikulam\tdharamashala'
p107
aS'dhanaulti'
p108
aS'dindigul'
p109
aS'dudhwa national park'
p110
aS'dwaraka'
p111
aS'madurai'
p112
aS'mahabalipuram'
p113
aS'malpe beach\tmanas national park'
p114
aS'mangalore'
p115
aS'mumbai'
p116
aS'margoa'
p117
aS'maravanthe beach'
p118
aS'mount abu'
p119
aS'munnar'
p120
aS'mussoorie'
p121
aS'mysore'
p122
aS'vaishali'
p123
aS'valley of flowers'
p124
aS'varanasi'
p125
aS'varkala and ayurveda'
p126
aS'vijayawada'
p127
aS'vishakhapatnam'
p128
aS'vrindhavan'
p129
aS'faridabad'
p130
aS'nahsik'
p131
aS'nalanda'
p132
aS'nandi-hills'
p133
aS'nanda devi national park'
p134
aS'netravali wild life sanctuary'
p135
aS'warangal'
p136
aS'wayanad'
p137
aS'wayanad wildlife sanctuary'
p138
aS'gandhinagar'
p139
aS'gangotri'
p140
aS'gangtok'
p141
aS'gir wildlife sanctuary'
p142
aS'great himalayan national park'
p143
aS'goa'
p144
aS'gwalior'
p145
aS'gulmarg'
p146
aS'gurgaon'
p147
aS'guruvayoor'
p148
aS'guwahati'
p149
aS'ooty'
p150
aS'orchha'
p151
aS'hampi'
p152
aS'haridwar'
p153
aS'hogenakkal'
p154
aS'horsley-hills'
p155
aS'hyderabad'
p156
aS'pahalgam'
p157
aS'palakkad'
p158
aS'patnitop'
p159
aS'patna'
p160
aS'panchgani'
p161
aS'pattadakkal'
p162
aS'periyar wildlife sanctuary'
p163
aS'pithoragarh'
p164
aS'pondicherry'
p165
aS'pune'
p166
aS'puri'
p167
aS'pushkar'
p168
aS'yercaud'
p169
aS'imphal'
p170
aS'itangar'
p171
aS'indore'
p172
aS'idukki'
p173
aS'raipur'
p174
aS'rajgir'
p175
aS'rajaji national park'
p176
aS'ranchi'
p177
aS'ranganthittu bird sanctuary'
p178
aS'ranthambore'
p179
aS'ranikhet'
p180
aS'rameshwaram'
p181
aS'rishikesh'
p182
aS'rourkela'
p183
aS'zanskar'
p184
a.